; Function Attrs: mustprogress uwtable
define hidden void @_ZNK7datalog17external_relation7displayERSo(ptr nocapture noundef nonnull readonly align 8 dereferenceable(96) %this, ptr noundef nonnull align 8 dereferenceable(8) %out) unnamed_addr #3 align 2 personality ptr @__gxx_personality_v0 {
entry:
  %ref.tmp = alloca %struct.mk_pp, align 8
  %m_rel = getelementptr inbounds i8, ptr %this, i64 32
  %0 = load ptr, ptr %m_rel, align 8
  %m_manager.i = getelementptr inbounds i8, ptr %this, i64 40
  %1 = load ptr, ptr %m_manager.i, align 8
  call void @_ZN11mk_ismt2_ppC2EP3astR11ast_managerjjPKc(ptr noundef nonnull align 8 dereferenceable(48) %ref.tmp, ptr noundef %0, ptr noundef nonnull align 8 dereferenceable(976) %1, i32 noundef 0, i32 noundef 0, ptr noundef null)
  %call4 = invoke noundef nonnull align 8 dereferenceable(8) ptr @_ZlsRSoRK11mk_ismt2_pp(ptr noundef nonnull align 8 dereferenceable(8) %out, ptr noundef nonnull align 8 dereferenceable(48) %ref.tmp)
          to label %invoke.cont unwind label %lpad

invoke.cont:                                      ; preds = %entry
  %call6 = invoke noundef nonnull align 8 dereferenceable(8) ptr @_ZStlsISt11char_traitsIcEERSt13basic_ostreamIcT_ES5_PKc(ptr noundef nonnull align 8 dereferenceable(8) %call4, ptr noundef nonnull @.str.1)
          to label %invoke.cont5 unwind label %lpad

invoke.cont5:                                     ; preds = %invoke.cont
  %m_empty.i.i = getelementptr inbounds i8, ptr %ref.tmp, i64 16
  call void @_ZN10params_refD1Ev(ptr noundef nonnull align 8 dereferenceable(8) %m_empty.i.i) #17
  ret void

lpad:                                             ; preds = %invoke.cont, %entry
  %2 = landingpad { ptr, i32 }
          cleanup
  %m_empty.i.i1 = getelementptr inbounds i8, ptr %ref.tmp, i64 16
  call void @_ZN10params_refD1Ev(ptr noundef nonnull align 8 dereferenceable(8) %m_empty.i.i1) #17
  resume { ptr, i32 } %2
}